Certificate:
    Data:
        Version: 1 (0x0)
        Serial Number: 4 (0x4)
    Signature Algorithm: md5WithRSAEncryption
        Issuer: C=US, ST=CA, O=Open vSwitch, OU=controllerca, CN=OVS controllerca CA Certificate (2014 Dec 23 14:21:01)
        Validity
            Not Before: Jan  8 04:29:48 2015 GMT
            Not After : Jan  7 04:29:48 2021 GMT
        Subject: C=US, ST=CA, O=Open vSwitch, OU=controllerca, CN=OVS controllerca CA Certificate (2014 Dec 23 14:21:01)
        Subject Public Key Info:
            Public Key Algorithm: rsaEncryption
                Public-Key: (2048 bit)
                Modulus:
                    00:bd:ff:25:68:c3:65:9b:b5:51:44:40:21:63:8a:
                    5f:cf:a6:12:ff:71:e4:e4:e9:d6:7c:09:af:5d:21:
                    35:a1:8d:6a:77:40:80:da:5f:6e:5c:f2:f1:09:92:
                    90:cf:4e:36:87:2d:9b:db:d5:0d:66:83:8b:bf:98:
                    95:10:98:31:a8:0f:cd:ef:dc:6c:62:9d:c4:b7:b4:
                    55:9d:88:4b:3e:95:b8:e5:16:bf:82:20:a1:c9:cd:
                    62:4b:9d:7b:bb:46:f1:f3:94:17:bc:2a:da:c2:40:
                    b6:f1:6d:a6:da:e2:39:ed:4b:91:ba:ce:d1:c3:ae:
                    99:fa:3f:3e:b8:db:02:67:41:ff:a6:d1:76:70:3c:
                    47:fe:c0:31:48:85:89:fe:0c:a4:f4:99:d1:2c:ce:
                    e8:e8:64:eb:54:b0:e7:69:30:2b:8f:3b:d6:54:0b:
                    ce:36:b7:5f:83:82:12:17:00:ed:b7:8e:ee:1b:f8:
                    36:5e:b0:6d:ae:46:ea:b4:4c:4d:f0:1e:48:c4:53:
                    d4:7c:3f:e7:bf:80:b4:44:72:ca:b8:37:aa:42:3c:
                    11:61:da:bc:bf:21:90:2a:b5:c0:64:49:b6:5e:f0:
                    83:d3:00:e6:de:b5:ab:5a:8d:7a:e2:42:3b:da:c9:
                    b2:64:26:a6:18:05:d0:0b:70:3c:29:88:87:64:5f:
                    ee:73
                Exponent: 65537 (0x10001)
    Signature Algorithm: md5WithRSAEncryption
         69:a8:09:c0:71:9e:fa:0b:4b:9c:26:5c:f7:44:ae:72:a1:8b:
         9c:8d:72:5f:23:7a:0e:9e:75:a3:7f:1c:29:b3:9f:a4:41:4e:
         61:2d:00:c9:38:05:79:34:f7:72:61:7e:34:a9:fd:d1:8f:cb:
         03:a8:01:bc:46:18:f3:28:36:35:67:e2:f8:8c:97:f8:dc:fe:
         5c:06:89:39:13:66:6a:c7:1a:f1:b9:05:c0:bc:85:e0:c0:0e:
         0e:03:63:7f:81:23:8a:68:56:40:01:fc:70:ff:6c:99:a8:7a:
         bc:65:4c:61:3b:1b:96:94:27:a0:85:98:53:38:31:f7:a5:33:
         21:26:c8:a7:6c:fd:e8:f5:d0:79:25:43:be:df:65:b4:3e:94:
         6a:f7:0e:4f:33:a5:6b:c4:97:b9:0b:73:51:bf:cd:db:e4:85:
         27:69:b8:41:ef:2d:3e:56:a0:d7:ad:11:9d:ec:db:06:13:c6:
         75:8c:e1:2b:68:dd:a7:3a:15:d4:1a:50:dc:cb:5a:66:d1:5a:
         0d:c2:30:c8:21:45:87:d6:51:f8:19:69:34:2b:58:4b:f2:48:
         0a:5d:a1:84:fd:db:25:4b:fd:82:1a:23:a5:c2:b8:00:bc:ae:
         e4:7a:2c:6e:8a:f2:ec:76:80:48:09:ac:f4:5e:b4:15:b3:18:
         75:26:90:9b
-----BEGIN CERTIFICATE-----
MIIDiDCCAnACAQQwDQYJKoZIhvcNAQEEBQAwgYkxCzAJBgNVBAYTAlVTMQswCQYD
VQQIEwJDQTEVMBMGA1UEChMMT3BlbiB2U3dpdGNoMRUwEwYDVQQLEwxjb250cm9s
bGVyY2ExPzA9BgNVBAMTNk9WUyBjb250cm9sbGVyY2EgQ0EgQ2VydGlmaWNhdGUg
KDIwMTQgRGVjIDIzIDE0OjIxOjAxKTAeFw0xNTAxMDgwNDI5NDhaFw0yMTAxMDcw
NDI5NDhaMIGJMQswCQYDVQQGEwJVUzELMAkGA1UECBMCQ0ExFTATBgNVBAoTDE9w
ZW4gdlN3aXRjaDEVMBMGA1UECxMMY29udHJvbGxlcmNhMT8wPQYDVQQDEzZPVlMg
Y29udHJvbGxlcmNhIENBIENlcnRpZmljYXRlICgyMDE0IERlYyAyMyAxNDoyMTow
MSkwggEiMA0GCSqGSIb3DQEBAQUAA4IBDwAwggEKAoIBAQC9/yVow2WbtVFEQCFj
il/PphL/ceTk6dZ8Ca9dITWhjWp3QIDaX25c8vEJkpDPTjaHLZvb1Q1mg4u/mJUQ
mDGoD83v3GxincS3tFWdiEs+lbjlFr+CIKHJzWJLnXu7RvHzlBe8KtrCQLbxbaba
4jntS5G6ztHDrpn6Pz642wJnQf+m0XZwPEf+wDFIhYn+DKT0mdEszujoZOtUsOdp
MCuPO9ZUC842t1+DghIXAO23ju4b+DZesG2uRuq0TE3wHkjEU9R8P+e/gLREcsq4
N6pCPBFh2ry/IZAqtcBkSbZe8IPTAObetatajXriQjvaybJkJqYYBdALcDwpiIdk
X+5zAgMBAAEwDQYJKoZIhvcNAQEEBQADggEBAGmoCcBxnvoLS5wmXPdErnKhi5yN
cl8jeg6edaN/HCmzn6RBTmEtAMk4BXk093JhfjSp/dGPywOoAbxGGPMoNjVn4viM
l/jc/lwGiTkTZmrHGvG5BcC8heDADg4DY3+BI4poVkAB/HD/bJmoerxlTGE7G5aU
J6CFmFM4MfelMyEmyKds/ej10HklQ77fZbQ+lGr3Dk8zpWvEl7kLc1G/zdvkhSdp
uEHvLT5WoNetEZ3s2wYTxnWM4Sto3ac6FdQaUNzLWmbRWg3CMMghRYfWUfgZaTQr
WEvySApdoYT92yVL/YIaI6XCuAC8ruR6LG6K8ux2gEgJrPRetBWzGHUmkJs=
-----END CERTIFICATE-----
