Certificate:
    Data:
        Version: 1 (0x0)
        Serial Number: 5 (0x5)
    Signature Algorithm: md5WithRSAEncryption
        Issuer: C=US, ST=CA, O=Open vSwitch, OU=controllerca, CN=OVS controllerca CA Certificate (2014 Dec 23 14:21:01)
        Validity
            Not Before: Jan  8 04:36:49 2015 GMT
            Not After : Jan  8 04:36:49 2016 GMT
        Subject: C=US, ST=CA, O=Open vSwitch, OU=Open vSwitch certifier, CN=Open vSwitch certificate for ctl
        Subject Public Key Info:
            Public Key Algorithm: rsaEncryption
                Public-Key: (2048 bit)
                Modulus:
                    00:ac:ae:b8:16:a1:86:41:6c:f5:f1:54:59:34:f9:
                    ff:c6:2e:7e:a2:5d:a0:b5:3c:ae:2e:65:0f:ca:b4:
                    eb:49:80:f8:26:bb:89:65:9e:5b:e8:77:9c:ef:e3:
                    4d:de:06:e3:ed:70:01:a7:64:30:8f:e7:3d:a9:70:
                    68:0b:62:c9:da:87:2f:5f:80:8b:09:21:34:8a:0c:
                    f6:3f:e9:0b:67:fd:37:7a:ae:ad:86:52:7f:a4:fb:
                    2a:6a:34:bf:26:f7:7b:58:8d:21:a7:ca:af:6d:3d:
                    80:3a:3b:31:92:4b:f5:f7:f8:c0:34:4e:18:39:ea:
                    d3:93:7e:ca:c8:14:c8:68:03:15:49:bb:f3:56:da:
                    93:be:b9:93:ac:97:41:db:6f:12:9c:ca:cf:af:ea:
                    c8:69:be:65:fe:a6:dd:b5:31:99:f9:80:48:e4:b3:
                    05:5b:d7:17:e9:bc:4c:98:6b:0b:6a:2c:9b:78:c7:
                    30:f1:53:88:ca:4b:df:f9:b9:19:bf:52:a8:3e:80:
                    31:8c:9d:72:ed:6e:de:47:6b:1f:9a:9d:01:d5:ab:
                    4e:5c:d8:4f:8b:18:8b:09:bf:3e:e6:09:9f:bb:d4:
                    fc:7a:23:d3:72:02:00:f8:c4:2b:31:10:93:75:33:
                    6a:ee:30:0c:08:e3:49:92:ab:f8:e0:01:6c:63:a9:
                    9e:97
                Exponent: 65537 (0x10001)
    Signature Algorithm: md5WithRSAEncryption
         b8:dd:5b:4c:39:cb:30:f9:c1:09:07:25:6f:48:7c:9f:90:43:
         15:17:75:45:6f:25:b1:82:42:d3:42:cd:b7:56:e2:c5:dd:0b:
         98:67:aa:a3:c0:ee:20:86:c7:5a:6a:81:6b:d3:b3:e9:a9:c3:
         2c:c8:5a:28:9c:df:e6:4b:89:92:3f:30:a3:83:2b:c5:04:bf:
         94:bf:44:e1:f3:41:c1:9c:1d:fa:c1:55:f0:14:0a:a6:44:27:
         3e:83:76:d5:7f:c3:07:fb:8c:53:a1:90:c1:67:14:6e:c9:ca:
         98:a5:27:24:42:8e:12:9a:61:4b:f1:3e:2f:01:58:d1:6c:a0:
         a9:b3:72:08:df:7b:16:48:d2:ed:8f:27:53:b0:27:4b:9d:26:
         40:9b:68:fa:3d:94:5d:ad:00:45:1c:54:a5:83:4b:11:c5:27:
         20:64:03:03:96:52:65:08:d7:8e:98:9c:8b:9a:af:9b:72:30:
         c3:84:b3:7c:4f:cb:31:74:5b:40:cf:73:aa:52:98:04:2d:da:
         96:a2:d0:88:fd:70:91:a1:9b:db:e0:80:76:6e:4d:80:7d:50:
         4f:40:3b:af:cb:51:b9:4a:09:c6:48:c7:05:4a:fe:a9:ad:f3:
         7c:d6:40:c4:6c:3c:83:69:17:a2:e2:99:e9:6c:77:aa:c3:d0:
         89:51:cd:53
-----BEGIN CERTIFICATE-----
MIIDezCCAmMCAQUwDQYJKoZIhvcNAQEEBQAwgYkxCzAJBgNVBAYTAlVTMQswCQYD
VQQIEwJDQTEVMBMGA1UEChMMT3BlbiB2U3dpdGNoMRUwEwYDVQQLEwxjb250cm9s
bGVyY2ExPzA9BgNVBAMTNk9WUyBjb250cm9sbGVyY2EgQ0EgQ2VydGlmaWNhdGUg
KDIwMTQgRGVjIDIzIDE0OjIxOjAxKTAeFw0xNTAxMDgwNDM2NDlaFw0xNjAxMDgw
NDM2NDlaMH0xCzAJBgNVBAYTAlVTMQswCQYDVQQIEwJDQTEVMBMGA1UEChMMT3Bl
biB2U3dpdGNoMR8wHQYDVQQLExZPcGVuIHZTd2l0Y2ggY2VydGlmaWVyMSkwJwYD
VQQDEyBPcGVuIHZTd2l0Y2ggY2VydGlmaWNhdGUgZm9yIGN0bDCCASIwDQYJKoZI
hvcNAQEBBQADggEPADCCAQoCggEBAKyuuBahhkFs9fFUWTT5/8YufqJdoLU8ri5l
D8q060mA+Ca7iWWeW+h3nO/jTd4G4+1wAadkMI/nPalwaAtiydqHL1+AiwkhNIoM
9j/pC2f9N3qurYZSf6T7Kmo0vyb3e1iNIafKr209gDo7MZJL9ff4wDROGDnq05N+
ysgUyGgDFUm781bak765k6yXQdtvEpzKz6/qyGm+Zf6m3bUxmfmASOSzBVvXF+m8
TJhrC2osm3jHMPFTiMpL3/m5Gb9SqD6AMYydcu1u3kdrH5qdAdWrTlzYT4sYiwm/
PuYJn7vU/Hoj03ICAPjEKzEQk3Uzau4wDAjjSZKr+OABbGOpnpcCAwEAATANBgkq
hkiG9w0BAQQFAAOCAQEAuN1bTDnLMPnBCQclb0h8n5BDFRd1RW8lsYJC00LNt1bi
xd0LmGeqo8DuIIbHWmqBa9Oz6anDLMhaKJzf5kuJkj8wo4MrxQS/lL9E4fNBwZwd
+sFV8BQKpkQnPoN21X/DB/uMU6GQwWcUbsnKmKUnJEKOEpphS/E+LwFY0WygqbNy
CN97FkjS7Y8nU7AnS50mQJto+j2UXa0ARRxUpYNLEcUnIGQDA5ZSZQjXjpici5qv
m3Iww4SzfE/LMXRbQM9zqlKYBC3alqLQiP1wkaGb2+CAdm5NgH1QT0A7r8tRuUoJ
xkjHBUr+qa3zfNZAxGw8g2kXouKZ6Wx3qsPQiVHNUw==
-----END CERTIFICATE-----
