Certificate:
    Data:
        Version: 1 (0x0)
        Serial Number: 5 (0x5)
    Signature Algorithm: md5WithRSAEncryption
        Issuer: C=US, ST=CA, O=Open vSwitch, OU=switchca, CN=OVS switchca CA Certificate (2014 Dec 23 14:21:01)
        Validity
            Not Before: Jan  8 04:37:04 2015 GMT
            Not After : Jan  8 04:37:04 2016 GMT
        Subject: C=US, ST=CA, O=Open vSwitch, OU=Open vSwitch certifier, CN=Open vSwitch certificate for sc
        Subject Public Key Info:
            Public Key Algorithm: rsaEncryption
                Public-Key: (2048 bit)
                Modulus:
                    00:bf:bd:07:c3:5c:7e:61:a3:59:35:e9:ec:95:65:
                    fe:90:3b:f3:41:44:f6:fc:17:c7:51:2e:f6:a5:c3:
                    76:88:2d:55:16:8f:6e:88:1a:18:7a:df:b9:c2:ff:
                    09:f6:7a:89:f9:27:ae:d9:8a:8c:4e:10:86:d2:5c:
                    19:0b:da:e1:70:aa:12:cb:08:2e:31:af:63:4f:d8:
                    db:11:0b:ca:43:66:d2:ed:dc:ff:7c:60:33:14:b6:
                    d9:6c:04:cc:6f:b8:51:63:30:b7:33:e9:b6:37:ea:
                    06:d6:ce:38:db:cf:c5:bb:eb:66:64:7a:99:8b:09:
                    52:1e:f9:2d:5b:7c:f9:9e:81:48:5a:95:b0:b8:e9:
                    37:35:bf:7f:1e:2b:89:4b:c9:cd:28:14:9d:9b:f4:
                    6b:bc:f3:fe:e5:e6:c0:a8:86:73:38:7b:1a:23:c6:
                    36:26:88:3c:24:9a:94:ec:1e:b2:65:b5:04:f6:75:
                    68:4f:c6:54:b4:5a:e6:3e:2b:26:6e:a7:91:a5:cc:
                    fc:ec:e6:53:ab:64:c1:ee:9a:a6:a5:1a:d2:b9:1c:
                    90:d0:9f:26:de:2d:16:0b:68:e5:6f:a6:48:a8:1d:
                    bd:a6:a0:72:6f:47:14:d3:84:ed:c8:63:14:02:2b:
                    e0:3b:19:5d:e3:b4:af:18:cb:bf:bd:82:f1:09:8c:
                    d8:9b
                Exponent: 65537 (0x10001)
    Signature Algorithm: md5WithRSAEncryption
         2b:e0:4a:ef:10:12:72:2b:03:6e:f1:c7:57:78:ca:31:f2:3e:
         37:16:53:b1:c0:a6:18:6c:20:6c:2f:12:da:84:e1:2a:2e:76:
         bd:a0:20:ea:39:fe:6c:3f:51:11:e1:65:eb:43:b3:b2:ed:83:
         ce:27:2a:78:1f:17:c6:4b:5b:24:8f:bc:ab:7e:02:7b:be:77:
         d0:df:85:15:fc:df:0d:34:53:a0:5d:bb:b7:54:ff:eb:2b:da:
         8d:e9:4c:b8:01:27:a2:ef:51:a3:9a:2d:84:0b:76:5c:7b:b5:
         b9:8c:ee:81:76:a3:09:df:2b:f4:4b:30:dc:5c:29:45:00:70:
         47:09:a6:c5:e8:8f:5d:d3:2a:61:05:ec:7c:8e:f1:06:8b:53:
         b8:42:80:f9:aa:ab:a2:6e:1c:f6:f0:5c:ee:61:39:c3:d4:88:
         53:69:d0:1f:74:6c:ea:f5:3e:c1:1c:dc:6a:e3:a6:2d:13:bf:
         29:80:c2:25:9d:2b:e5:e3:07:91:0d:cd:f5:9c:9a:8b:8c:1a:
         ee:2e:9a:c9:dc:68:f5:d3:84:b3:30:67:eb:22:d8:91:3b:11:
         94:9f:76:01:f9:b1:00:06:ef:1a:d9:b9:f2:b4:dd:91:67:b9:
         f4:0f:4c:10:42:72:95:48:47:dc:24:4c:10:80:70:9b:56:9b:
         44:61:42:23
-----BEGIN CERTIFICATE-----
MIIDcjCCAloCAQUwDQYJKoZIhvcNAQEEBQAwgYExCzAJBgNVBAYTAlVTMQswCQYD
VQQIEwJDQTEVMBMGA1UEChMMT3BlbiB2U3dpdGNoMREwDwYDVQQLEwhzd2l0Y2hj
YTE7MDkGA1UEAxMyT1ZTIHN3aXRjaGNhIENBIENlcnRpZmljYXRlICgyMDE0IERl
YyAyMyAxNDoyMTowMSkwHhcNMTUwMTA4MDQzNzA0WhcNMTYwMTA4MDQzNzA0WjB8
MQswCQYDVQQGEwJVUzELMAkGA1UECBMCQ0ExFTATBgNVBAoTDE9wZW4gdlN3aXRj
aDEfMB0GA1UECxMWT3BlbiB2U3dpdGNoIGNlcnRpZmllcjEoMCYGA1UEAxMfT3Bl
biB2U3dpdGNoIGNlcnRpZmljYXRlIGZvciBzYzCCASIwDQYJKoZIhvcNAQEBBQAD
ggEPADCCAQoCggEBAL+9B8NcfmGjWTXp7JVl/pA780FE9vwXx1Eu9qXDdogtVRaP
bogaGHrfucL/CfZ6ifknrtmKjE4QhtJcGQva4XCqEssILjGvY0/Y2xELykNm0u3c
/3xgMxS22WwEzG+4UWMwtzPptjfqBtbOONvPxbvrZmR6mYsJUh75LVt8+Z6BSFqV
sLjpNzW/fx4riUvJzSgUnZv0a7zz/uXmwKiGczh7GiPGNiaIPCSalOwesmW1BPZ1
aE/GVLRa5j4rJm6nkaXM/OzmU6tkwe6apqUa0rkckNCfJt4tFgto5W+mSKgdvaag
cm9HFNOE7chjFAIr4DsZXeO0rxjLv72C8QmM2JsCAwEAATANBgkqhkiG9w0BAQQF
AAOCAQEAK+BK7xAScisDbvHHV3jKMfI+NxZTscCmGGwgbC8S2oThKi52vaAg6jn+
bD9REeFl60Ozsu2DzicqeB8XxktbJI+8q34Ce7530N+FFfzfDTRToF27t1T/6yva
jelMuAEnou9Ro5othAt2XHu1uYzugXajCd8r9Esw3FwpRQBwRwmmxeiPXdMqYQXs
fI7xBotTuEKA+aqrom4c9vBc7mE5w9SIU2nQH3Rs6vU+wRzcauOmLRO/KYDCJZ0r
5eMHkQ3N9Zyai4wa7i6aydxo9dOEszBn6yLYkTsRlJ92AfmxAAbvGtm58rTdkWe5
9A9MEEJylUhH3CRMEIBwm1abRGFCIw==
-----END CERTIFICATE-----
