Certificate:
    Data:
        Version: 1 (0x0)
        Serial Number: 4 (0x4)
    Signature Algorithm: md5WithRSAEncryption
        Issuer: C=US, ST=CA, O=Open vSwitch, OU=switchca, CN=OVS switchca CA Certificate (2014 Dec 23 14:21:01)
        Validity
            Not Before: Jan  8 04:29:49 2015 GMT
            Not After : Jan  7 04:29:49 2021 GMT
        Subject: C=US, ST=CA, O=Open vSwitch, OU=switchca, CN=OVS switchca CA Certificate (2014 Dec 23 14:21:01)
        Subject Public Key Info:
            Public Key Algorithm: rsaEncryption
                Public-Key: (2048 bit)
                Modulus:
                    00:c8:6c:b7:ef:b6:73:3e:cd:e9:37:4d:04:2d:14:
                    9d:7b:be:a5:3a:e3:72:b8:df:d7:1d:bb:5c:57:46:
                    8a:47:0d:2e:62:6f:73:4c:3c:26:07:58:fd:43:59:
                    3e:82:bc:a8:4c:50:30:d1:67:70:da:28:84:b3:76:
                    12:7d:b6:64:c3:0b:d5:d3:39:56:c9:f4:4e:ba:ba:
                    55:b2:c7:7c:4d:73:29:df:1a:30:84:6c:35:c0:61:
                    84:07:c8:70:a2:79:93:db:1e:d3:43:3f:d5:2d:dd:
                    ae:1d:bb:88:e0:ae:71:f4:cb:78:e5:de:3f:1a:4d:
                    48:3d:0f:73:59:a4:ab:44:6d:79:48:9a:98:94:c8:
                    7d:76:d0:31:cc:92:66:c2:ea:17:b7:91:97:73:c6:
                    17:0f:fd:c0:a1:c5:7e:f1:c5:74:f4:ee:d1:0a:4e:
                    4a:e1:e2:de:df:b6:b1:f1:91:f0:10:62:58:d4:50:
                    c5:64:b5:3c:8e:62:45:7c:1d:ba:ea:74:b4:a5:71:
                    c7:56:a9:48:0b:6c:dd:64:ac:78:94:5f:b5:5d:0c:
                    41:66:3e:22:5c:c4:58:62:90:2b:6a:be:1a:7a:3e:
                    b9:af:6e:85:10:ea:3b:eb:d4:c7:af:12:44:50:9f:
                    dc:83:d8:e6:4c:9c:c3:d6:ba:34:88:30:e5:1e:8a:
                    4d:69
                Exponent: 65537 (0x10001)
    Signature Algorithm: md5WithRSAEncryption
         6f:89:2e:c3:1a:af:e8:b9:af:4c:2e:21:25:66:e7:b1:40:4d:
         84:9d:ee:44:8c:3b:da:7b:e4:c9:38:22:31:69:25:b7:96:fc:
         62:88:75:d9:a5:78:64:a7:90:a2:be:1a:2f:1a:56:71:b8:70:
         48:9b:42:7f:8e:02:9a:65:a5:52:de:ca:55:ed:ef:2d:36:60:
         e9:05:16:ab:84:82:ff:0c:0c:9b:cf:53:97:93:d2:73:24:fe:
         b8:1e:f6:9b:e2:2e:0f:f0:54:70:35:b1:f4:29:ec:1a:37:4c:
         d7:a3:8d:6e:19:64:8a:31:1c:dd:37:29:d5:25:a7:f7:86:cf:
         4f:0b:08:e4:fe:4b:d1:21:67:a2:05:46:90:1f:79:5e:99:18:
         48:f0:98:11:fb:d9:d9:49:fe:50:6e:71:06:1b:04:a4:c9:d2:
         bb:bc:f5:3a:46:81:88:fa:28:01:6a:b1:f4:ac:b3:98:ba:7f:
         e0:d9:80:0f:c5:3c:4e:66:6d:f8:ec:91:89:54:81:ce:a8:67:
         fa:50:41:c8:45:82:fe:5d:09:2b:e0:ad:29:7b:62:99:ed:57:
         16:40:b7:be:95:a4:7b:ca:27:19:d0:47:83:9a:2a:6d:d6:59:
         1a:a4:bb:7a:fd:9f:ce:2d:bf:05:4c:9a:c8:e0:7c:72:98:05:
         10:7e:5a:25
-----BEGIN CERTIFICATE-----
MIIDeDCCAmACAQQwDQYJKoZIhvcNAQEEBQAwgYExCzAJBgNVBAYTAlVTMQswCQYD
VQQIEwJDQTEVMBMGA1UEChMMT3BlbiB2U3dpdGNoMREwDwYDVQQLEwhzd2l0Y2hj
YTE7MDkGA1UEAxMyT1ZTIHN3aXRjaGNhIENBIENlcnRpZmljYXRlICgyMDE0IERl
YyAyMyAxNDoyMTowMSkwHhcNMTUwMTA4MDQyOTQ5WhcNMjEwMTA3MDQyOTQ5WjCB
gTELMAkGA1UEBhMCVVMxCzAJBgNVBAgTAkNBMRUwEwYDVQQKEwxPcGVuIHZTd2l0
Y2gxETAPBgNVBAsTCHN3aXRjaGNhMTswOQYDVQQDEzJPVlMgc3dpdGNoY2EgQ0Eg
Q2VydGlmaWNhdGUgKDIwMTQgRGVjIDIzIDE0OjIxOjAxKTCCASIwDQYJKoZIhvcN
AQEBBQADggEPADCCAQoCggEBAMhst++2cz7N6TdNBC0UnXu+pTrjcrjf1x27XFdG
ikcNLmJvc0w8JgdY/UNZPoK8qExQMNFncNoohLN2En22ZMML1dM5Vsn0Trq6VbLH
fE1zKd8aMIRsNcBhhAfIcKJ5k9se00M/1S3drh27iOCucfTLeOXePxpNSD0Pc1mk
q0RteUiamJTIfXbQMcySZsLqF7eRl3PGFw/9wKHFfvHFdPTu0QpOSuHi3t+2sfGR
8BBiWNRQxWS1PI5iRXwduup0tKVxx1apSAts3WSseJRftV0MQWY+IlzEWGKQK2q+
Gno+ua9uhRDqO+vUx68SRFCf3IPY5kycw9a6NIgw5R6KTWkCAwEAATANBgkqhkiG
9w0BAQQFAAOCAQEAb4kuwxqv6LmvTC4hJWbnsUBNhJ3uRIw72nvkyTgiMWklt5b8
Yoh12aV4ZKeQor4aLxpWcbhwSJtCf44CmmWlUt7KVe3vLTZg6QUWq4SC/wwMm89T
l5PScyT+uB72m+IuD/BUcDWx9CnsGjdM16ONbhlkijEc3Tcp1SWn94bPTwsI5P5L
0SFnogVGkB95XpkYSPCYEfvZ2Un+UG5xBhsEpMnSu7z1OkaBiPooAWqx9KyzmLp/
4NmAD8U8TmZt+OyRiVSBzqhn+lBByEWC/l0JK+CtKXtime1XFkC3vpWke8onGdBH
g5oqbdZZGqS7ev2fzi2/BUyayOB8cpgFEH5aJQ==
-----END CERTIFICATE-----
